target datalayout = "e-m:e-p270:32:32-p271:32:32-p272:64:64-i64:64-i128:128-f80:128-n8:16:32:64-S128"
target triple = "x86_64-unknown-linux-gnu"

%"struct.std::_Rb_tree_header" = type { %"struct.std::_Rb_tree_node_base", i64 }
%"struct.std::_Rb_tree_node_base" = type { i32, ptr, ptr, ptr }
%"struct.std::atomic.64" = type { %"struct.std::__atomic_base.65" }
%"struct.std::__atomic_base.65" = type { i64 }
%"class.grpc_core::RefCount" = type { %"struct.std::atomic.108" }
%"struct.std::atomic.108" = type { %"struct.std::__atomic_base.109" }
%"struct.std::__atomic_base.109" = type { i64 }
%"class.grpc_core::RefCountedPtr" = type { ptr }
%"class.std::shared_ptr" = type { %"class.std::__shared_ptr" }
%"class.std::__shared_ptr" = type { ptr, %"class.std::__shared_count" }
%"class.std::__shared_count" = type { ptr }
%"class.std::unique_ptr.119" = type { %"struct.std::__uniq_ptr_data.120" }
%"struct.std::__uniq_ptr_data.120" = type { %"class.std::__uniq_ptr_impl.121" }
%"class.std::__uniq_ptr_impl.121" = type { %"class.std::tuple.122" }
%"class.std::tuple.122" = type { %"struct.std::_Tuple_impl.123" }
%"struct.std::_Tuple_impl.123" = type { %"struct.std::_Head_base.126" }
%"struct.std::_Head_base.126" = type { ptr }
%"class.grpc_core::ChannelArgs" = type { %"class.grpc_core::AVL" }
%"class.grpc_core::AVL" = type { %"class.grpc_core::RefCountedPtr.127" }
%"class.grpc_core::RefCountedPtr.127" = type { ptr }
%"class.grpc_core::LoadBalancingPolicy" = type { %"class.grpc_core::InternallyRefCounted", %"class.std::shared_ptr", ptr, %"class.std::unique_ptr.119", %"class.grpc_core::ChannelArgs" }
%"class.grpc_core::InternallyRefCounted" = type { %"class.grpc_core::Orphanable", %"class.grpc_core::RefCount" }
%"class.grpc_core::Orphanable" = type { ptr }
%"class.absl::lts_20230802::Mutex" = type { %"struct.std::atomic.108" }
%"class.absl::lts_20230802::random_internal::NonsecureURBGBase" = type { %"class.absl::lts_20230802::random_internal::randen_engine" }
%"class.absl::lts_20230802::random_internal::randen_engine" = type { [264 x i8], i64, %"class.absl::lts_20230802::random_internal::Randen" }
%"class.absl::lts_20230802::random_internal::Randen" = type <{ ptr, i8, [7 x i8] }>
%"struct.std::atomic.151" = type { %"struct.std::__atomic_base.152" }
%"struct.std::__atomic_base.152" = type { i32 }
%"class.grpc_core::LoadBalancingPolicy::SubchannelPicker" = type { %"class.grpc_core::DualRefCounted.276" }
%"class.grpc_core::DualRefCounted.276" = type { %"class.grpc_core::Orphanable", %"struct.std::atomic.64" }
%"class.std::shared_ptr.282" = type { %"class.std::__shared_ptr.283" }
%"class.std::__shared_ptr.283" = type { ptr, %"class.std::__shared_count" }
%"class.std::optional.285" = type { %"struct.std::_Optional_base.286" }
%"struct.std::_Optional_base.286" = type { %"struct.std::_Optional_payload.288" }
%"struct.std::_Optional_payload.288" = type { %"struct.std::_Optional_payload_base.base.290", [7 x i8] }
%"struct.std::_Optional_payload_base.base.290" = type <{ %"union.std::_Optional_payload_base<grpc_event_engine::experimental::EventEngine::TaskHandle>::_Storage", i8 }>
%"union.std::_Optional_payload_base<grpc_event_engine::experimental::EventEngine::TaskHandle>::_Storage" = type { %"struct.grpc_event_engine::experimental::EventEngine::TaskHandle" }
%"struct.grpc_event_engine::experimental::EventEngine::TaskHandle" = type { [2 x i64] }
%"class.grpc_core::(anonymous namespace)::WeightedRoundRobin" = type <{ %"class.grpc_core::LoadBalancingPolicy", %"class.grpc_core::RefCountedPtr", %"class.std::unique_ptr.429", %"class.std::unique_ptr.429", %"class.absl::lts_20230802::Mutex", %"class.std::map.435", i8, [7 x i8], %"class.absl::lts_20230802::random_internal::NonsecureURBGBase", %"struct.std::atomic.151", [4 x i8] }>
%"class.std::unique_ptr.429" = type { %"struct.std::__uniq_ptr_data.430" }
%"struct.std::__uniq_ptr_data.430" = type { %"class.std::__uniq_ptr_impl.431" }
%"class.std::__uniq_ptr_impl.431" = type { %"class.std::tuple.432" }
%"class.std::tuple.432" = type { %"struct.std::_Tuple_impl.433" }
%"struct.std::_Tuple_impl.433" = type { %"struct.std::_Head_base.434" }
%"struct.std::_Head_base.434" = type { ptr }
%"class.std::map.435" = type { %"class.std::_Rb_tree.436" }
%"class.std::_Rb_tree.436" = type { %"struct.std::_Rb_tree<grpc_core::EndpointAddressSet, std::pair<const grpc_core::EndpointAddressSet, grpc_core::(anonymous namespace)::WeightedRoundRobin::EndpointWeight *>, std::_Select1st<std::pair<const grpc_core::EndpointAddressSet, grpc_core::(anonymous namespace)::WeightedRoundRobin::EndpointWeight *>>, std::less<grpc_core::EndpointAddressSet>>::_Rb_tree_impl" }
%"struct.std::_Rb_tree<grpc_core::EndpointAddressSet, std::pair<const grpc_core::EndpointAddressSet, grpc_core::(anonymous namespace)::WeightedRoundRobin::EndpointWeight *>, std::_Select1st<std::pair<const grpc_core::EndpointAddressSet, grpc_core::(anonymous namespace)::WeightedRoundRobin::EndpointWeight *>>, std::less<grpc_core::EndpointAddressSet>>::_Rb_tree_impl" = type { %"struct.std::_Rb_tree_key_compare.440", %"struct.std::_Rb_tree_header" }
%"struct.std::_Rb_tree_key_compare.440" = type { %"struct.std::less.441" }
%"struct.std::less.441" = type { i8 }
%"class.grpc_core::RefCountedPtr.470" = type { ptr }
%"class.grpc_core::(anonymous namespace)::WeightedRoundRobin::Picker" = type { %"class.grpc_core::LoadBalancingPolicy::SubchannelPicker", %"class.grpc_core::RefCountedPtr.470", %"class.grpc_core::RefCountedPtr", %"class.std::vector.500", %"class.absl::lts_20230802::Mutex", %"class.std::shared_ptr.282", %"class.absl::lts_20230802::Mutex", %"class.std::optional.285", %"struct.std::atomic.64" }
%"class.std::vector.500" = type { %"struct.std::_Vector_base.501" }
%"struct.std::_Vector_base.501" = type { %"struct.std::_Vector_base<grpc_core::(anonymous namespace)::WeightedRoundRobin::Picker::EndpointInfo, std::allocator<grpc_core::(anonymous namespace)::WeightedRoundRobin::Picker::EndpointInfo>>::_Vector_impl" }
%"struct.std::_Vector_base<grpc_core::(anonymous namespace)::WeightedRoundRobin::Picker::EndpointInfo, std::allocator<grpc_core::(anonymous namespace)::WeightedRoundRobin::Picker::EndpointInfo>>::_Vector_impl" = type { %"struct.std::_Vector_base<grpc_core::(anonymous namespace)::WeightedRoundRobin::Picker::EndpointInfo, std::allocator<grpc_core::(anonymous namespace)::WeightedRoundRobin::Picker::EndpointInfo>>::_Vector_impl_data" }
%"struct.std::_Vector_base<grpc_core::(anonymous namespace)::WeightedRoundRobin::Picker::EndpointInfo, std::allocator<grpc_core::(anonymous namespace)::WeightedRoundRobin::Picker::EndpointInfo>>::_Vector_impl_data" = type { ptr, ptr, ptr }
%class.anon.507 = type { ptr }

; Function Attrs: mustprogress nounwind uwtable
define internal noundef ptr @_ZNK9grpc_core13RefCountedPtrINS_12_GLOBAL__N_118WeightedRoundRobinEEptEv(ptr noundef nonnull align 8 dereferenceable(8) %this) #5 align 2 {
entry:
  %this.addr = alloca ptr, align 8
  store ptr %this, ptr %this.addr, align 8
  %this1 = load ptr, ptr %this.addr, align 8
  %value_ = getelementptr inbounds %"class.grpc_core::RefCountedPtr.470", ptr %this1, i32 0, i32 0
  %0 = load ptr, ptr %value_, align 8
  ret ptr %0
}

; Function Attrs: mustprogress nounwind uwtable
define internal noundef i32 @"_ZZN9grpc_core12_GLOBAL__N_118WeightedRoundRobin6Picker33BuildSchedulerAndStartTimerLockedEvENK3$_0clEv"(ptr noundef nonnull align 8 dereferenceable(8) %this) #5 align 2 {
entry:
  %this.addr.i = alloca ptr, align 8
  %__i.addr.i = alloca i32, align 4
  %__m.addr.i = alloca i32, align 4
  %.atomictmp.i = alloca i32, align 4
  %atomic-temp.i = alloca i32, align 4
  %this.addr = alloca ptr, align 8
  store ptr %this, ptr %this.addr, align 8
  %this1 = load ptr, ptr %this.addr, align 8
  %0 = getelementptr inbounds %class.anon.507, ptr %this1, i32 0, i32 0
  %1 = load ptr, ptr %0, align 8
  %wrr_ = getelementptr inbounds %"class.grpc_core::(anonymous namespace)::WeightedRoundRobin::Picker", ptr %1, i32 0, i32 1
  %call = call noundef ptr @_ZNK9grpc_core13RefCountedPtrINS_12_GLOBAL__N_118WeightedRoundRobinEEptEv(ptr noundef nonnull align 8 dereferenceable(8) %wrr_)
  %scheduler_state_ = getelementptr inbounds %"class.grpc_core::(anonymous namespace)::WeightedRoundRobin", ptr %call, i32 0, i32 9
  store ptr %scheduler_state_, ptr %this.addr.i, align 8
  store i32 1, ptr %__i.addr.i, align 4
  store i32 5, ptr %__m.addr.i, align 4
  %this1.i = load ptr, ptr %this.addr.i, align 8
  %2 = load i32, ptr %__m.addr.i, align 4
  %3 = load i32, ptr %__i.addr.i, align 4
  store i32 %3, ptr %.atomictmp.i, align 4
  switch i32 %2, label %monotonic.i [
    i32 1, label %acquire.i
    i32 2, label %acquire.i
    i32 3, label %release.i
    i32 4, label %acqrel.i
    i32 5, label %seqcst.i
  ]

monotonic.i:                                      ; preds = %entry
  %4 = load i32, ptr %.atomictmp.i, align 4
  %5 = atomicrmw add ptr %this1.i, i32 %4 monotonic, align 4
  store i32 %5, ptr %atomic-temp.i, align 4
  br label %_ZNSt13__atomic_baseIjE9fetch_addEjSt12memory_order.exit

acquire.i:                                        ; preds = %entry, %entry
  %6 = load i32, ptr %.atomictmp.i, align 4
  %7 = atomicrmw add ptr %this1.i, i32 %6 acquire, align 4
  store i32 %7, ptr %atomic-temp.i, align 4
  br label %_ZNSt13__atomic_baseIjE9fetch_addEjSt12memory_order.exit

release.i:                                        ; preds = %entry
  %8 = load i32, ptr %.atomictmp.i, align 4
  %9 = atomicrmw add ptr %this1.i, i32 %8 release, align 4
  store i32 %9, ptr %atomic-temp.i, align 4
  br label %_ZNSt13__atomic_baseIjE9fetch_addEjSt12memory_order.exit

acqrel.i:                                         ; preds = %entry
  %10 = load i32, ptr %.atomictmp.i, align 4
  %11 = atomicrmw add ptr %this1.i, i32 %10 acq_rel, align 4
  store i32 %11, ptr %atomic-temp.i, align 4
  br label %_ZNSt13__atomic_baseIjE9fetch_addEjSt12memory_order.exit

seqcst.i:                                         ; preds = %entry
  %12 = load i32, ptr %.atomictmp.i, align 4
  %13 = atomicrmw add ptr %this1.i, i32 %12 seq_cst, align 4
  store i32 %13, ptr %atomic-temp.i, align 4
  br label %_ZNSt13__atomic_baseIjE9fetch_addEjSt12memory_order.exit

_ZNSt13__atomic_baseIjE9fetch_addEjSt12memory_order.exit: ; preds = %seqcst.i, %acqrel.i, %release.i, %acquire.i, %monotonic.i
  %14 = load i32, ptr %atomic-temp.i, align 4
  ret i32 %14
}

; Function Attrs: mustprogress uwtable
define internal noundef i32 @"_ZSt13__invoke_implIjRZN9grpc_core12_GLOBAL__N_118WeightedRoundRobin6Picker33BuildSchedulerAndStartTimerLockedEvE3$_0JEET_St14__invoke_otherOT0_DpOT1_"(ptr noundef nonnull align 8 dereferenceable(8) %__f) #4 {
entry:
  %__f.addr = alloca ptr, align 8
  store ptr %__f, ptr %__f.addr, align 8
  %0 = load ptr, ptr %__f.addr, align 8
  %call = call noundef i32 @"_ZZN9grpc_core12_GLOBAL__N_118WeightedRoundRobin6Picker33BuildSchedulerAndStartTimerLockedEvENK3$_0clEv"(ptr noundef nonnull align 8 dereferenceable(8) %0)
  ret i32 %call
}

; Function Attrs: mustprogress uwtable
define internal noundef i32 @"_ZSt8__invokeIRZN9grpc_core12_GLOBAL__N_118WeightedRoundRobin6Picker33BuildSchedulerAndStartTimerLockedEvE3$_0JEENSt15__invoke_resultIT_JDpT0_EE4typeEOS7_DpOS8_"(ptr noundef nonnull align 8 dereferenceable(8) %__fn) #4 {
entry:
  %__fn.addr = alloca ptr, align 8
  store ptr %__fn, ptr %__fn.addr, align 8
  %0 = load ptr, ptr %__fn.addr, align 8
  %call = call noundef i32 @"_ZSt13__invoke_implIjRZN9grpc_core12_GLOBAL__N_118WeightedRoundRobin6Picker33BuildSchedulerAndStartTimerLockedEvE3$_0JEET_St14__invoke_otherOT0_DpOT1_"(ptr noundef nonnull align 8 dereferenceable(8) %0)
  ret i32 %call
}

; Function Attrs: mustprogress uwtable
define internal noundef i32 @"_ZSt6invokeIRZN9grpc_core12_GLOBAL__N_118WeightedRoundRobin6Picker33BuildSchedulerAndStartTimerLockedEvE3$_0JEENSt13invoke_resultIT_JDpT0_EE4typeEOS7_DpOS8_"(ptr noundef nonnull align 8 dereferenceable(8) %__fn) #4 {
entry:
  %__fn.addr = alloca ptr, align 8
  store ptr %__fn, ptr %__fn.addr, align 8
  %0 = load ptr, ptr %__fn.addr, align 8
  %call = call noundef i32 @"_ZSt8__invokeIRZN9grpc_core12_GLOBAL__N_118WeightedRoundRobin6Picker33BuildSchedulerAndStartTimerLockedEvE3$_0JEENSt15__invoke_resultIT_JDpT0_EE4typeEOS7_DpOS8_"(ptr noundef nonnull align 8 dereferenceable(8) %0)
  ret i32 %call
}

; Function Attrs: mustprogress nounwind uwtable
define internal noundef ptr @"_ZSt7launderIZN9grpc_core12_GLOBAL__N_118WeightedRoundRobin6Picker33BuildSchedulerAndStartTimerLockedEvE3$_0EPT_S6_"(ptr noundef %__p) #5 {
entry:
  %__p.addr = alloca ptr, align 8
  store ptr %__p, ptr %__p.addr, align 8
  %0 = load ptr, ptr %__p.addr, align 8
  ret ptr %0
}

; Function Attrs: mustprogress uwtable
define internal noundef i32 @"_ZN4absl12lts_2023080222internal_any_invocable7InvokeRIjRZN9grpc_core12_GLOBAL__N_118WeightedRoundRobin6Picker33BuildSchedulerAndStartTimerLockedEvE3$_0JETnNSt9enable_ifIXntsr3std7is_voidIT_EE5valueEiE4typeELi0EEESA_OT0_DpOT1_"(ptr noundef nonnull align 8 dereferenceable(8) %f) #4 {
entry:
  %f.addr = alloca ptr, align 8
  store ptr %f, ptr %f.addr, align 8
  %0 = load ptr, ptr %f.addr, align 8
  %call = call noundef i32 @"_ZSt6invokeIRZN9grpc_core12_GLOBAL__N_118WeightedRoundRobin6Picker33BuildSchedulerAndStartTimerLockedEvE3$_0JEENSt13invoke_resultIT_JDpT0_EE4typeEOS7_DpOS8_"(ptr noundef nonnull align 8 dereferenceable(8) %0)
  ret i32 %call
}

; Function Attrs: mustprogress nounwind uwtable
define internal noundef nonnull align 8 dereferenceable(8) ptr @"_ZN4absl12lts_2023080222internal_any_invocable20ObjectInLocalStorageIZN9grpc_core12_GLOBAL__N_118WeightedRoundRobin6Picker33BuildSchedulerAndStartTimerLockedEvE3$_0EERT_PNS1_15TypeErasedStateE"(ptr noundef %state) #5 {
entry:
  %state.addr = alloca ptr, align 8
  store ptr %state, ptr %state.addr, align 8
  %0 = load ptr, ptr %state.addr, align 8
  %call = call noundef ptr @"_ZSt7launderIZN9grpc_core12_GLOBAL__N_118WeightedRoundRobin6Picker33BuildSchedulerAndStartTimerLockedEvE3$_0EPT_S6_"(ptr noundef %0) #3
  ret ptr %call
}

; Function Attrs: mustprogress uwtable
define internal noundef i32 @"_ZN4absl12lts_2023080222internal_any_invocable12LocalInvokerILb0EjRZN9grpc_core12_GLOBAL__N_118WeightedRoundRobin6Picker33BuildSchedulerAndStartTimerLockedEvE3$_0JEEET0_PNS1_15TypeErasedStateEDpNS1_18ForwardedParameterIT2_E4typeE"(ptr noundef %state) #4 {
entry:
  %state.addr = alloca ptr, align 8
  %f = alloca ptr, align 8
  store ptr %state, ptr %state.addr, align 8
  %0 = load ptr, ptr %state.addr, align 8
  %call = call noundef nonnull align 8 dereferenceable(8) ptr @"_ZN4absl12lts_2023080222internal_any_invocable20ObjectInLocalStorageIZN9grpc_core12_GLOBAL__N_118WeightedRoundRobin6Picker33BuildSchedulerAndStartTimerLockedEvE3$_0EERT_PNS1_15TypeErasedStateE"(ptr noundef %0)
  store ptr %call, ptr %f, align 8
  %1 = load ptr, ptr %f, align 8
  %call1 = call noundef i32 @"_ZN4absl12lts_2023080222internal_any_invocable7InvokeRIjRZN9grpc_core12_GLOBAL__N_118WeightedRoundRobin6Picker33BuildSchedulerAndStartTimerLockedEvE3$_0JETnNSt9enable_ifIXntsr3std7is_voidIT_EE5valueEiE4typeELi0EEESA_OT0_DpOT1_"(ptr noundef nonnull align 8 dereferenceable(8) %1)
  ret i32 %call1
}