; Function Attrs: mustprogress nofree norecurse nounwind willreturn memory(readwrite, inaccessiblemem: none) uwtable
define internal noundef i32 @"_ZN4absl12lts_2023080222internal_any_invocable12LocalInvokerILb0EjRZN9grpc_core12_GLOBAL__N_118WeightedRoundRobin6Picker33BuildSchedulerAndStartTimerLockedEvE3$_0JEEET0_PNS1_15TypeErasedStateEDpNS1_18ForwardedParameterIT2_E4typeE"(ptr nocapture noundef readonly %state) #22 {
entry:
  %call.val = load ptr, ptr %state, align 8
  %0 = getelementptr i8, ptr %call.val, i64 16
  %call.val.val = load ptr, ptr %0, align 8
  %scheduler_state_.i.i.i.i.i = getelementptr inbounds i8, ptr %call.val.val, i64 432
  %1 = atomicrmw add ptr %scheduler_state_.i.i.i.i.i, i32 1 seq_cst, align 4
  ret i32 %1
}